Certificate:
    Data:
        Version: 3 (0x2)
        Serial Number: 2 (0x2)
        Signature Algorithm: sha1WithRSAEncryption
        Issuer: C=IN, ST=TN, L=Gowrivakkam, O=UNLEASH NETWORKS, OU=TRISUL TESTING, CN=unleashnetworks.com/emailAddress=info@unleashnetworks.com
        Validity
            Not Before: Feb 27 13:23:33 2012 GMT
            Not After : Feb 26 13:23:33 2013 GMT
        Subject: C=US, ST=TN, O=Unleash Networks, OU=Trisul Client Test Cert, CN=unleashnetworks.com/emailAddress=info@unleashnetworks.com
        Subject Public Key Info:
            Public Key Algorithm: rsaEncryption
                Public-Key: (1024 bit)
                Modulus:
                    00:bc:83:85:6a:12:97:9e:bd:07:cc:f0:ab:cd:97:
                    03:fa:74:01:48:a5:51:d2:03:82:24:b9:33:5b:6f:
                    55:24:3d:ae:bb:69:8d:f2:98:fc:d0:01:d7:f2:8c:
                    1e:f9:67:ad:33:46:58:0f:d3:5d:f8:a6:00:7d:a5:
                    4d:00:60:f5:46:a5:7a:0a:3c:8f:13:a8:4e:2f:cb:
                    44:19:b0:f2:08:76:51:aa:fb:c4:5c:99:b7:2a:f8:
                    0c:92:1a:62:aa:52:e6:3a:ff:a1:43:7e:36:c8:b3:
                    f5:ec:ac:1b:b9:4d:f4:61:2d:c7:9c:97:95:24:9a:
                    5e:dc:1f:09:2c:ca:18:c3:87
                Exponent: 65537 (0x10001)
        X509v3 extensions:
            X509v3 Basic Constraints: 
                CA:FALSE
            Netscape Comment: 
                OpenSSL Generated Certificate For Trisul PKI
            X509v3 Subject Key Identifier: 
                26:43:4F:FD:80:2C:E9:FF:CF:58:25:61:1F:89:C0:2D:34:32:C0:20
            X509v3 Authority Key Identifier: 
                keyid:99:B6:6A:A4:7A:E7:C6:6F:ED:D3:6A:47:73:2A:99:60:5E:A5:D4:18

    Signature Algorithm: sha1WithRSAEncryption
        8e:9a:81:0d:03:48:f4:ca:43:4a:c7:cb:ba:48:4a:41:dd:d3:
        9a:a9:22:38:56:03:6e:f7:b2:40:d4:b0:92:1f:63:23:ac:11:
        de:e9:6c:42:6b:f0:5b:ac:18:8d:66:bd:e2:87:54:04:2b:74:
        67:33:ab:a8:aa:9f:ae:e0:47:ed:78:9f:df:98:e4:74:6e:00:
        2a:02:4d:a8:15:66:7b:1b:8c:99:40:f4:07:a0:1c:88:ad:28:
        6d:2f:5c:c8:ef:8c:a3:a0:e4:ec:7a:b2:48:bb:57:7a:65:3e:
        ee:39:30:df:cd:dd:bf:8f:b0:17:ef:9a:fa:98:9e:6b:41:be:
        45:3b:8c:77:1f:73:70:74:de:21:e0:6d:4c:5d:6d:7b:bf:1a:
        9e:75:05:e5:29:f8:87:46:0d:cc:3a:5b:d1:f3:75:3c:f4:e0:
        a6:18:34:3c:60:f2:4b:6d:03:43:90:7b:75:66:1a:d2:15:ee:
        ba:21:0d:fe:7c:07:8a:95:55:3a:63:46:f2:c4:4f:d0:39:ce:
        78:bf:3f:bc:17:b7:0d:06:92:fe:b8:e8:0a:5d:6b:55:0c:f2:
        d7:2e:24:04:39:4a:fa:00:dc:8f:b8:1a:f9:54:2c:cb:a9:22:
        11:d6:ca:b4:09:a7:6f:f3:66:c3:29:d6:24:d8:4d:0d:74:4b:
        32:7e:1c:04
-----BEGIN CERTIFICATE-----
MIIDzjCCAragAwIBAgIBAjANBgkqhkiG9w0BAQUFADCBqzELMAkGA1UEBhMCSU4x
CzAJBgNVBAgTAlROMRQwEgYDVQQHEwtHb3dyaXZha2thbTEZMBcGA1UEChMQVU5M
RUFTSCBORVRXT1JLUzEXMBUGA1UECxMOVFJJU1VMIFRFU1RJTkcxHDAaBgNVBAMT
E3VubGVhc2huZXR3b3Jrcy5jb20xJzAlBgkqhkiG9w0BCQEWGGluZm9AdW5sZWFz
aG5ldHdvcmtzLmNvbTAeFw0xMjAyMjcxMzIzMzNaFw0xMzAyMjYxMzIzMzNaMIGe
MQswCQYDVQQGEwJVUzELMAkGA1UECBMCVE4xGTAXBgNVBAoTEFVubGVhc2ggTmV0
d29ya3MxIDAeBgNVBAsTF1RyaXN1bCBDbGllbnQgVGVzdCBDZXJ0MRwwGgYDVQQD
ExN1bmxlYXNobmV0d29ya3MuY29tMScwJQYJKoZIhvcNAQkBFhhpbmZvQHVubGVh
c2huZXR3b3Jrcy5jb20wgZ8wDQYJKoZIhvcNAQEBBQADgY0AMIGJAoGBALyDhWoS
l569B8zwq82XA/p0AUilUdIDgiS5M1tvVSQ9rrtpjfKY/NAB1/KMHvlnrTNGWA/T
XfimAH2lTQBg9Ualego8jxOoTi/LRBmw8gh2Uar7xFyZtyr4DJIaYqpS5jr/oUN+
Nsiz9eysG7lN9GEtx5yXlSSaXtwfCSzKGMOHAgMBAAGjgYswgYgwCQYDVR0TBAIw
ADA7BglghkgBhvhCAQ0ELhYsT3BlblNTTCBHZW5lcmF0ZWQgQ2VydGlmaWNhdGUg
Rm9yIFRyaXN1bCBQS0kwHQYDVR0OBBYEFCZDT/2ALOn/z1glYR+JwC00MsAgMB8G
A1UdIwQYMBaAFJm2aqR658Zv7dNqR3MqmWBepdQYMA0GCSqGSIb3DQEBBQUAA4IB
AQCOmoENA0j0ykNKx8u6SEpB3dOaqSI4VgNu97JA1LCSH2MjrBHe6WxCa/BbrBiN
Zr3ih1QEK3RnM6uoqp+u4EfteJ/fmOR0bgAqAk2oFWZ7G4yZQPQHoByIrShtL1zI
74yjoOTserJIu1d6ZT7uOTDfzd2/j7AX75r6mJ5rQb5FO4x3H3NwdN4h4G1MXW17
vxqedQXlKfiHRg3MOlvR83U89OCmGDQ8YPJLbQNDkHt1ZhrSFe66IQ3+fAeKlVU6
Y0byxE/QOc54vz+8F7cNBpL+uOgKXWtVDPLXLiQEOUr6ANyPuBr5VCzLqSIR1sq0
Cadv82bDKdYk2E0NdEsyfhwE
-----END CERTIFICATE-----
