Certificate:
    Data:
        Version: 3 (0x2)
        Serial Number: 1 (0x1)
        Signature Algorithm: sha1WithRSAEncryption
        Issuer: C=IN, ST=TN, L=Gowrivakkam, O=Unleash Networks Trisul Demo , OU=Trisul Demo CA, CN=trisuldemo
        Validity
            Not Before: Aug 23 06:21:57 2010 GMT
            Not After : Aug 23 06:21:57 2011 GMT
        Subject: C=IN, ST=TN, O=Unleash Networks Trisul Demo , CN=trisul_client_00
        Subject Public Key Info:
            Public Key Algorithm: rsaEncryption
            RSA Public Key: (1024 bit)
                Modulus (1024 bit):
                    00:b7:f8:3e:5b:e5:a6:87:b6:e3:5d:91:ab:f1:e3:
                    60:74:78:d7:e7:39:51:c1:59:5f:29:42:e0:03:b6:
                    d5:f0:36:ee:94:8e:df:36:02:9a:a3:95:2a:b8:e3:
                    aa:7e:75:84:36:6a:67:b8:b8:c9:3d:cc:36:25:80:
                    f3:64:9f:77:8a:f7:37:c1:ec:ba:b5:28:6a:61:b3:
                    54:26:a7:89:73:7b:47:8d:fc:67:00:da:35:91:62:
                    1e:ca:1d:33:54:b9:d2:1c:e8:e2:dc:99:8e:25:dc:
                    7b:de:21:e7:ce:a3:7e:68:07:ad:c9:3a:71:60:6d:
                    45:f2:34:f2:77:1c:31:8a:31
                Exponent: 65537 (0x10001)
        X509v3 extensions:
            X509v3 Basic Constraints: 
                CA:FALSE
            Netscape Comment: 
                OpenSSL Generated Certificate For Trisul / Unsniff PKI
            X509v3 Subject Key Identifier: 
                22:2B:15:63:BD:55:2B:DB:3E:3B:10:08:E8:4B:53:ED:02:A5:83:FB
            X509v3 Authority Key Identifier: 
                keyid:61:D3:24:23:7E:D2:64:30:54:DB:A9:21:E2:33:BF:46:E0:79:00:2D

    Signature Algorithm: sha1WithRSAEncryption
        04:22:51:df:8b:fb:ed:b5:bf:5d:ad:54:e8:e4:9a:cc:63:1b:
        7a:e3:7e:d2:df:6d:79:44:5f:8f:ef:a0:35:05:2c:25:b8:4a:
        82:f1:21:54:3a:ca:5f:2b:cb:a6:d8:40:1f:16:db:96:10:35:
        c8:c4:81:9c:b4:92:e4:0e:a9:76:ed:35:a1:f8:96:cf:65:53:
        5c:c1:73:59:a3:7e:36:80:64:c2:64:78:58:b9:da:46:ae:44:
        be:5d:53:d5:37:67:9f:62:3b:53:57:71:9d:85:80:65:db:94:
        e4:7c:8d:7f:35:e3:c1:1c:4d:9d:0d:43:f9:ea:3f:1b:b0:0b:
        73:fb:13:a8:20:fc:cb:56:ef:a4:45:42:a5:59:b0:46:57:16:
        17:15:d3:dd:75:05:03:08:08:7f:e8:44:31:4d:e8:51:bc:fc:
        44:05:e8:e9:49:aa:56:e2:ad:88:8b:92:cf:fc:90:21:8c:17:
        4c:1b:ca:55:b5:cd:fb:7f:c8:eb:ef:41:91:7f:c5:7f:47:2e:
        10:e8:0e:57:56:c4:1b:47:b3:66:cc:14:ea:de:4e:ab:b5:ad:
        55:55:b8:78:95:b2:c4:05:8a:9c:90:f2:d4:7a:e7:16:42:d5:
        0b:0f:45:af:83:85:37:bc:14:05:2e:10:b6:5e:58:e0:23:12:
        bb:08:35:4c
-----BEGIN CERTIFICATE-----
MIIDcTCCAlmgAwIBAgIBATANBgkqhkiG9w0BAQUFADCBhjELMAkGA1UEBhMCSU4x
CzAJBgNVBAgTAlROMRQwEgYDVQQHEwtHb3dyaXZha2thbTEmMCQGA1UEChMdVW5s
ZWFzaCBOZXR3b3JrcyBUcmlzdWwgRGVtbyAxFzAVBgNVBAsTDlRyaXN1bCBEZW1v
IENBMRMwEQYDVQQDEwp0cmlzdWxkZW1vMB4XDTEwMDgyMzA2MjE1N1oXDTExMDgy
MzA2MjE1N1owXTELMAkGA1UEBhMCSU4xCzAJBgNVBAgTAlROMSYwJAYDVQQKEx1V
bmxlYXNoIE5ldHdvcmtzIFRyaXN1bCBEZW1vIDEZMBcGA1UEAwwQdHJpc3VsX2Ns
aWVudF8wMDCBnzANBgkqhkiG9w0BAQEFAAOBjQAwgYkCgYEAt/g+W+Wmh7bjXZGr
8eNgdHjX5zlRwVlfKULgA7bV8DbulI7fNgKao5UquOOqfnWENmpnuLjJPcw2JYDz
ZJ93ivc3wey6tShqYbNUJqeJc3tHjfxnANo1kWIeyh0zVLnSHOji3JmOJdx73iHn
zqN+aAetyTpxYG1F8jTydxwxijECAwEAAaOBlTCBkjAJBgNVHRMEAjAAMEUGCWCG
SAGG+EIBDQQ4FjZPcGVuU1NMIEdlbmVyYXRlZCBDZXJ0aWZpY2F0ZSBGb3IgVHJp
c3VsIC8gVW5zbmlmZiBQS0kwHQYDVR0OBBYEFCIrFWO9VSvbPjsQCOhLU+0CpYP7
MB8GA1UdIwQYMBaAFGHTJCN+0mQwVNupIeIzv0bgeQAtMA0GCSqGSIb3DQEBBQUA
A4IBAQAEIlHfi/vttb9drVTo5JrMYxt6437S3215RF+P76A1BSwluEqC8SFUOspf
K8um2EAfFtuWEDXIxIGctJLkDql27TWh+JbPZVNcwXNZo342gGTCZHhYudpGrkS+
XVPVN2efYjtTV3GdhYBl25TkfI1/NePBHE2dDUP56j8bsAtz+xOoIPzLVu+kRUKl
WbBGVxYXFdPddQUDCAh/6EQxTehRvPxEBejpSapW4q2Ii5LP/JAhjBdMG8pVtc37
f8jr70GRf8V/Ry4Q6A5XVsQbR7NmzBTq3k6rta1VVbh4lbLEBYqckPLUeucWQtUL
D0Wvg4U3vBQFLhC2XljgIxK7CDVM
-----END CERTIFICATE-----
